target datalayout = "e-m:e-p270:32:32-p271:32:32-p272:64:64-i64:64-i128:128-f80:128-n8:16:32:64-S128"
target triple = "x86_64-pc-linux-gnu"

%"class.std::__cxx11::basic_string" = type { %"struct.std::__cxx11::basic_string<char>::_Alloc_hider", i64, %union.anon }
%"struct.std::__cxx11::basic_string<char>::_Alloc_hider" = type { ptr }
%union.anon = type { i64, [8 x i8] }
%"struct.std::_Rb_tree_key_compare" = type { %"struct.std::less" }
%"struct.std::less" = type { i8 }
%"struct.std::_Rb_tree_header" = type { %"struct.std::_Rb_tree_node_base", i64 }
%"struct.std::_Rb_tree_node_base" = type { i32, ptr, ptr, ptr }
%"class.std::set" = type { %"class.std::_Rb_tree.8" }
%"class.std::_Rb_tree.8" = type { %"struct.std::_Rb_tree<std::__cxx11::basic_string<char>, std::__cxx11::basic_string<char>, std::_Identity<std::__cxx11::basic_string<char>>, std::less<std::__cxx11::basic_string<char>>>::_Rb_tree_impl" }
%"struct.std::_Rb_tree<std::__cxx11::basic_string<char>, std::__cxx11::basic_string<char>, std::_Identity<std::__cxx11::basic_string<char>>, std::less<std::__cxx11::basic_string<char>>>::_Rb_tree_impl" = type { %"struct.std::_Rb_tree_key_compare", %"struct.std::_Rb_tree_header" }
%"class.std::allocator" = type { i8 }
%"class.std::__shared_count" = type { ptr }
%"class.std::basic_string_view" = type { i64, ptr }
%"class.std::set.148" = type { %"class.std::_Rb_tree.149" }
%"class.std::_Rb_tree.149" = type { %"struct.std::_Rb_tree<nix::StorePath, nix::StorePath, std::_Identity<nix::StorePath>, std::less<nix::StorePath>>::_Rb_tree_impl" }
%"struct.std::_Rb_tree<nix::StorePath, nix::StorePath, std::_Identity<nix::StorePath>, std::less<nix::StorePath>>::_Rb_tree_impl" = type { %"struct.std::_Rb_tree_key_compare.153", %"struct.std::_Rb_tree_header" }
%"struct.std::_Rb_tree_key_compare.153" = type { %"struct.std::less.154" }
%"struct.std::less.154" = type { i8 }
%"class.std::optional.188" = type { %"struct.std::_Optional_base.189" }
%"struct.std::_Optional_base.189" = type { %"struct.std::_Optional_payload.191" }
%"struct.std::_Optional_payload.191" = type { %"struct.std::_Optional_payload.base.195", [7 x i8] }
%"struct.std::_Optional_payload.base.195" = type { %"struct.std::_Optional_payload_base.base.194" }
%"struct.std::_Optional_payload_base.base.194" = type <{ %"union.std::_Optional_payload_base<nix::StorePath>::_Storage", i8 }>
%"union.std::_Optional_payload_base<nix::StorePath>::_Storage" = type { %"class.nix::StorePath" }
%"class.nix::StorePath" = type { %"class.std::__cxx11::basic_string" }
%"class.std::optional.166" = type { %"struct.std::_Optional_base.167" }
%"struct.std::_Optional_base.167" = type { %"struct.std::_Optional_payload.169" }
%"struct.std::_Optional_payload.169" = type { %"struct.std::_Optional_payload_base.base.185", [7 x i8] }
%"struct.std::_Optional_payload_base.base.185" = type { %"union.std::_Optional_payload_base<nix::ContentAddress>::_Storage", i8 }
%"union.std::_Optional_payload_base<nix::ContentAddress>::_Storage" = type { %"struct.nix::ContentAddress" }
%"struct.nix::ContentAddress" = type { %"struct.nix::ContentAddressMethod", [6 x i8], %"struct.nix::Hash" }
%"struct.nix::ContentAddressMethod" = type { %"class.std::variant.171" }
%"class.std::variant.171" = type { %"struct.std::__detail::__variant::_Variant_base.172" }
%"struct.std::__detail::__variant::_Variant_base.172" = type { %"struct.std::__detail::__variant::_Move_assign_base.173" }
%"struct.std::__detail::__variant::_Move_assign_base.173" = type { %"struct.std::__detail::__variant::_Copy_assign_base.174" }
%"struct.std::__detail::__variant::_Copy_assign_base.174" = type { %"struct.std::__detail::__variant::_Move_ctor_base.175" }
%"struct.std::__detail::__variant::_Move_ctor_base.175" = type { %"struct.std::__detail::__variant::_Copy_ctor_base.176" }
%"struct.std::__detail::__variant::_Copy_ctor_base.176" = type { %"struct.std::__detail::__variant::_Variant_storage.177" }
%"struct.std::__detail::__variant::_Variant_storage.177" = type { %"union.std::__detail::__variant::_Variadic_union.178", i8 }
%"union.std::__detail::__variant::_Variadic_union.178" = type { %"struct.std::__detail::__variant::_Uninitialized.179" }
%"struct.std::__detail::__variant::_Uninitialized.179" = type { %"struct.nix::TextIngestionMethod" }
%"struct.nix::TextIngestionMethod" = type { i8 }
%"struct.nix::Hash" = type <{ i64, [64 x i8], i8, [7 x i8] }>
%"class.std::shared_ptr.210" = type { %"class.std::__shared_ptr.211" }
%"class.std::__shared_ptr.211" = type { ptr, %"class.std::__shared_count" }
%"struct.nix::UnkeyedValidPathInfo" = type { ptr, %"class.std::optional.188", %"struct.nix::Hash", %"class.std::set.148", i64, i64, i64, i8, %"class.std::set", %"class.std::optional.166" }
%"class.nix::ref.227" = type { %"class.std::shared_ptr.210" }
%"struct.nix::ValidPathInfo" = type { %"struct.nix::UnkeyedValidPathInfo", %"class.nix::StorePath" }

@.str.24 = private unnamed_addr constant [91 x i8] c"RemoteStore::addToStoreFromDump doesn't support this `dumpMethod` `hashMethod` combination\00", align 1

; Function Attrs: mustprogress nounwind uwtable
define linkonce_odr noundef ptr @_ZNKSt12__shared_ptrIKN3nix13ValidPathInfoELN9__gnu_cxx12_Lock_policyE2EE3getEv(ptr noundef nonnull align 8 dereferenceable(16) %0) #2 comdat align 2 {
  %2 = alloca ptr, align 8
  store ptr %0, ptr %2, align 8
  %3 = load ptr, ptr %2, align 8
  %4 = getelementptr inbounds %"class.std::__shared_ptr.211", ptr %3, i32 0, i32 0
  %5 = load ptr, ptr %4, align 8
  ret ptr %5
}

; Function Attrs: mustprogress nounwind uwtable
define linkonce_odr noundef ptr @_ZNKSt19__shared_ptr_accessIKN3nix13ValidPathInfoELN9__gnu_cxx12_Lock_policyE2ELb0ELb0EE6_M_getEv(ptr noundef nonnull align 1 dereferenceable(1) %0) #2 comdat align 2 {
  %2 = alloca ptr, align 8
  store ptr %0, ptr %2, align 8
  %3 = load ptr, ptr %2, align 8
  %4 = call noundef ptr @_ZNKSt12__shared_ptrIKN3nix13ValidPathInfoELN9__gnu_cxx12_Lock_policyE2EE3getEv(ptr noundef nonnull align 8 dereferenceable(16) %3) #1
  ret ptr %4
}

; Function Attrs: mustprogress nounwind uwtable
define linkonce_odr noundef nonnull align 8 dereferenceable(384) ptr @_ZNKSt19__shared_ptr_accessIKN3nix13ValidPathInfoELN9__gnu_cxx12_Lock_policyE2ELb0ELb0EEdeEv(ptr noundef nonnull align 1 dereferenceable(1) %0) #2 comdat align 2 {
  %2 = alloca ptr, align 8
  store ptr %0, ptr %2, align 8
  %3 = load ptr, ptr %2, align 8
  br label %4

4:                                                ; preds = %1
  br label %5

5:                                                ; preds = %4
  br label %6

6:                                                ; preds = %5
  %7 = call noundef ptr @_ZNKSt19__shared_ptr_accessIKN3nix13ValidPathInfoELN9__gnu_cxx12_Lock_policyE2ELb0ELb0EE6_M_getEv(ptr noundef nonnull align 1 dereferenceable(1) %3) #1
  ret ptr %7
}

; Function Attrs: mustprogress uwtable
define linkonce_odr void @_ZN3nix9StorePathC2ERKS0_(ptr noundef nonnull align 8 dereferenceable(32) %0, ptr noundef nonnull align 8 dereferenceable(32) %1) unnamed_addr #5 comdat align 2 {
  %3 = alloca ptr, align 8
  %4 = alloca ptr, align 8
  store ptr %0, ptr %3, align 8
  store ptr %1, ptr %4, align 8
  %5 = load ptr, ptr %3, align 8
  %6 = getelementptr inbounds %"class.nix::StorePath", ptr %5, i32 0, i32 0
  %7 = load ptr, ptr %4, align 8
  %8 = getelementptr inbounds %"class.nix::StorePath", ptr %7, i32 0, i32 0
  call void @_ZNSt7__cxx1112basic_stringIcSt11char_traitsIcESaIcEEC2ERKS4_(ptr noundef nonnull align 8 dereferenceable(32) %6, ptr noundef nonnull align 8 dereferenceable(32) %8)
  ret void
}

; Function Attrs: mustprogress nounwind uwtable
define linkonce_odr noundef ptr @_ZNK3nix3refIKNS_13ValidPathInfoEEptEv(ptr noundef nonnull align 8 dereferenceable(16) %0) #2 comdat align 2 {
  %2 = alloca ptr, align 8
  store ptr %0, ptr %2, align 8
  %3 = load ptr, ptr %2, align 8
  %4 = getelementptr inbounds %"class.nix::ref.227", ptr %3, i32 0, i32 0
  %5 = call noundef nonnull align 8 dereferenceable(384) ptr @_ZNKSt19__shared_ptr_accessIKN3nix13ValidPathInfoELN9__gnu_cxx12_Lock_policyE2ELb0ELb0EEdeEv(ptr noundef nonnull align 1 dereferenceable(1) %4) #1
  ret ptr %5
}

; Function Attrs: mustprogress uwtable
define void @_ZN3nix11RemoteStore18addToStoreFromDumpERNS_6SourceESt17basic_string_viewIcSt11char_traitsIcEENS_23FileSerialisationMethodENS_20ContentAddressMethodENS_13HashAlgorithmERKSt3setINS_9StorePathESt4lessISB_ESaISB_EENS_10RepairFlagE(ptr dead_on_unwind noalias writable sret(%"class.nix::StorePath") align 8 %0, ptr noundef nonnull align 8 dereferenceable(25) %1, ptr noundef nonnull align 8 dereferenceable(8) %2, i64 %3, ptr %4, i8 noundef zeroext %5, i16 %6, i8 noundef signext %7, ptr noundef nonnull align 8 dereferenceable(48) %8, i1 noundef zeroext %9) unnamed_addr #5 align 2 personality ptr @__gxx_personality_v0 {
  %11 = alloca ptr, align 8
  %12 = alloca %"class.std::basic_string_view", align 8
  %13 = alloca %"struct.nix::ContentAddressMethod", align 1
  %14 = alloca ptr, align 8
  %15 = alloca ptr, align 8
  %16 = alloca i8, align 1
  %17 = alloca i8, align 1
  %18 = alloca ptr, align 8
  %19 = alloca i8, align 1
  %20 = alloca i8, align 1
  %21 = alloca %"class.std::__cxx11::basic_string", align 8
  %22 = alloca %"class.std::allocator", align 1
  %23 = alloca ptr, align 8
  %24 = alloca i32, align 4
  %25 = alloca %"class.nix::ref.227", align 8
  %26 = alloca %"class.std::basic_string_view", align 8
  %27 = alloca %"struct.nix::ContentAddressMethod", align 1
  store ptr %0, ptr %11, align 8
  %28 = getelementptr inbounds { i64, ptr }, ptr %12, i32 0, i32 0
  store i64 %3, ptr %28, align 8
  %29 = getelementptr inbounds { i64, ptr }, ptr %12, i32 0, i32 1
  store ptr %4, ptr %29, align 8
  %30 = getelementptr inbounds %"struct.nix::ContentAddressMethod", ptr %13, i32 0, i32 0
  %31 = getelementptr inbounds %"class.std::variant.171", ptr %30, i32 0, i32 0
  %32 = getelementptr inbounds %"struct.std::__detail::__variant::_Variant_base.172", ptr %31, i32 0, i32 0
  %33 = getelementptr inbounds %"struct.std::__detail::__variant::_Move_assign_base.173", ptr %32, i32 0, i32 0
  %34 = getelementptr inbounds %"struct.std::__detail::__variant::_Copy_assign_base.174", ptr %33, i32 0, i32 0
  %35 = getelementptr inbounds %"struct.std::__detail::__variant::_Move_ctor_base.175", ptr %34, i32 0, i32 0
  %36 = getelementptr inbounds %"struct.std::__detail::__variant::_Copy_ctor_base.176", ptr %35, i32 0, i32 0
  store i16 %6, ptr %36, align 1
  store ptr %1, ptr %14, align 8
  store ptr %2, ptr %15, align 8
  store i8 %5, ptr %16, align 1
  store i8 %7, ptr %17, align 1
  store ptr %8, ptr %18, align 8
  %37 = zext i1 %9 to i8
  store i8 %37, ptr %19, align 1
  %38 = load ptr, ptr %14, align 8
  %39 = call noundef zeroext i8 @_ZNK3nix20ContentAddressMethod22getFileIngestionMethodEv(ptr noundef nonnull align 1 dereferenceable(2) %13)
  switch i8 %39, label %43 [
    i8 0, label %40
    i8 1, label %41
    i8 2, label %42
  ]

40:                                               ; preds = %10
  store i8 0, ptr %20, align 1
  br label %44

41:                                               ; preds = %10
  store i8 1, ptr %20, align 1
  br label %44

42:                                               ; preds = %10
  store i8 1, ptr %20, align 1
  br label %44

43:                                               ; preds = %10
  br label %44

44:                                               ; preds = %43, %42, %41, %40
  %45 = load i8, ptr %20, align 1
  %46 = load i8, ptr %16, align 1
  %47 = icmp ne i8 %45, %46
  br i1 %47, label %48, label %64

48:                                               ; preds = %44
  %49 = load ptr, ptr %38, align 8
  %50 = getelementptr i8, ptr %49, i64 -24
  %51 = load i64, ptr %50, align 8
  %52 = getelementptr inbounds i8, ptr %38, i64 %51
  call void @_ZNSaIcEC1Ev(ptr noundef nonnull align 1 dereferenceable(1) %22) #1
  invoke void @_ZNSt7__cxx1112basic_stringIcSt11char_traitsIcESaIcEEC2IS3_EEPKcRKS3_(ptr noundef nonnull align 8 dereferenceable(32) %21, ptr noundef @.str.24, ptr noundef nonnull align 1 dereferenceable(1) %22)
          to label %53 unwind label %55

53:                                               ; preds = %48
  invoke void @_ZN3nix5Store11unsupportedERKNSt7__cxx1112basic_stringIcSt11char_traitsIcESaIcEEE(ptr noundef nonnull align 8 dereferenceable(264) %52, ptr noundef nonnull align 8 dereferenceable(32) %21) #19
          to label %54 unwind label %59

54:                                               ; preds = %53
  unreachable

55:                                               ; preds = %48
  %56 = landingpad { ptr, i32 }
          cleanup
  %57 = extractvalue { ptr, i32 } %56, 0
  store ptr %57, ptr %23, align 8
  %58 = extractvalue { ptr, i32 } %56, 1
  store i32 %58, ptr %24, align 4
  br label %63

59:                                               ; preds = %53
  %60 = landingpad { ptr, i32 }
          cleanup
  %61 = extractvalue { ptr, i32 } %60, 0
  store ptr %61, ptr %23, align 8
  %62 = extractvalue { ptr, i32 } %60, 1
  store i32 %62, ptr %24, align 4
  call void @_ZNSt7__cxx1112basic_stringIcSt11char_traitsIcESaIcEED2Ev(ptr noundef nonnull align 8 dereferenceable(32) %21) #1
  br label %63

63:                                               ; preds = %59, %55
  call void @_ZNSaIcED1Ev(ptr noundef nonnull align 1 dereferenceable(1) %22) #1
  br label %90

64:                                               ; preds = %44
  %65 = load ptr, ptr %15, align 8
  call void @llvm.memcpy.p0.p0.i64(ptr align 8 %26, ptr align 8 %12, i64 16, i1 false)
  call void @llvm.memcpy.p0.p0.i64(ptr align 1 %27, ptr align 1 %13, i64 2, i1 false)
  %66 = load i8, ptr %17, align 1
  %67 = load ptr, ptr %18, align 8
  %68 = load i8, ptr %19, align 1
  %69 = trunc i8 %68 to i1
  %70 = getelementptr inbounds { i64, ptr }, ptr %26, i32 0, i32 0
  %71 = load i64, ptr %70, align 8
  %72 = getelementptr inbounds { i64, ptr }, ptr %26, i32 0, i32 1
  %73 = load ptr, ptr %72, align 8
  %74 = getelementptr inbounds %"struct.nix::ContentAddressMethod", ptr %27, i32 0, i32 0
  %75 = getelementptr inbounds %"class.std::variant.171", ptr %74, i32 0, i32 0
  %76 = getelementptr inbounds %"struct.std::__detail::__variant::_Variant_base.172", ptr %75, i32 0, i32 0
  %77 = getelementptr inbounds %"struct.std::__detail::__variant::_Move_assign_base.173", ptr %76, i32 0, i32 0
  %78 = getelementptr inbounds %"struct.std::__detail::__variant::_Copy_assign_base.174", ptr %77, i32 0, i32 0
  %79 = getelementptr inbounds %"struct.std::__detail::__variant::_Move_ctor_base.175", ptr %78, i32 0, i32 0
  %80 = getelementptr inbounds %"struct.std::__detail::__variant::_Copy_ctor_base.176", ptr %79, i32 0, i32 0
  %81 = load i16, ptr %80, align 1
  call void @_ZN3nix11RemoteStore12addCAToStoreERNS_6SourceESt17basic_string_viewIcSt11char_traitsIcEENS_20ContentAddressMethodENS_13HashAlgorithmERKSt3setINS_9StorePathESt4lessISA_ESaISA_EENS_10RepairFlagE(ptr dead_on_unwind writable sret(%"class.nix::ref.227") align 8 %25, ptr noundef nonnull align 8 dereferenceable(25) %38, ptr noundef nonnull align 8 dereferenceable(8) %65, i64 %71, ptr %73, i16 %81, i8 noundef signext %66, ptr noundef nonnull align 8 dereferenceable(48) %67, i1 noundef zeroext %69)
  %82 = invoke noundef ptr @_ZNK3nix3refIKNS_13ValidPathInfoEEptEv(ptr noundef nonnull align 8 dereferenceable(16) %25)
          to label %83 unwind label %86

83:                                               ; preds = %64
  %84 = getelementptr inbounds %"struct.nix::ValidPathInfo", ptr %82, i32 0, i32 1
  invoke void @_ZN3nix9StorePathC2ERKS0_(ptr noundef nonnull align 8 dereferenceable(32) %0, ptr noundef nonnull align 8 dereferenceable(32) %84)
          to label %85 unwind label %86

85:                                               ; preds = %83
  call void @_ZN3nix3refIKNS_13ValidPathInfoEED2Ev(ptr noundef nonnull align 8 dereferenceable(16) %25) #1
  ret void

86:                                               ; preds = %83, %64
  %87 = landingpad { ptr, i32 }
          cleanup
  %88 = extractvalue { ptr, i32 } %87, 0
  store ptr %88, ptr %23, align 8
  %89 = extractvalue { ptr, i32 } %87, 1
  store i32 %89, ptr %24, align 4
  call void @_ZN3nix3refIKNS_13ValidPathInfoEED2Ev(ptr noundef nonnull align 8 dereferenceable(16) %25) #1
  br label %90

90:                                               ; preds = %86, %63
  %91 = load ptr, ptr %23, align 8
  %92 = load i32, ptr %24, align 4
  %93 = insertvalue { ptr, i32 } poison, ptr %91, 0
  %94 = insertvalue { ptr, i32 } %93, i32 %92, 1
  resume { ptr, i32 } %94
}