; Function Attrs: mustprogress uwtable
define void @_ZN3nix11RemoteStore18addToStoreFromDumpERNS_6SourceESt17basic_string_viewIcSt11char_traitsIcEENS_23FileSerialisationMethodENS_20ContentAddressMethodENS_13HashAlgorithmERKSt3setINS_9StorePathESt4lessISB_ESaISB_EENS_10RepairFlagE(ptr dead_on_unwind noalias writable sret(%"class.nix::StorePath") align 8 %0, ptr noundef nonnull align 8 dereferenceable(25) %1, ptr noundef nonnull align 8 dereferenceable(8) %2, i64 %3, ptr %4, i8 noundef zeroext %5, i16 %6, i8 noundef signext %7, ptr noundef nonnull align 8 dereferenceable(48) %8, i1 noundef zeroext %9) unnamed_addr #5 align 2 personality ptr @__gxx_personality_v0 {
  %11 = alloca %"struct.nix::ContentAddressMethod", align 2
  %12 = alloca %"class.std::__cxx11::basic_string", align 8
  %13 = alloca %"class.std::allocator", align 1
  %14 = alloca %"class.nix::ref.227", align 8
  store i16 %6, ptr %11, align 2
  %15 = call noundef zeroext i8 @_ZNK3nix20ContentAddressMethod22getFileIngestionMethodEv(ptr noundef nonnull align 1 dereferenceable(2) %11)
  %16 = add i8 %15, -1
  %switch.selectcmp = icmp ult i8 %16, 2
  %17 = zext i1 %switch.selectcmp to i8
  %.not = icmp eq i8 %17, %5
  br i1 %.not, label %30, label %18

18:                                               ; preds = %10
  %19 = load ptr, ptr %1, align 8
  %20 = getelementptr i8, ptr %19, i64 -24
  %21 = load i64, ptr %20, align 8
  call void @_ZNSaIcEC1Ev(ptr noundef nonnull align 1 dereferenceable(1) %13) #29
  invoke void @_ZNSt7__cxx1112basic_stringIcSt11char_traitsIcESaIcEEC2IS3_EEPKcRKS3_(ptr noundef nonnull align 8 dereferenceable(32) %12, ptr noundef nonnull @.str.24, ptr noundef nonnull align 1 dereferenceable(1) %13)
          to label %22 unwind label %25

22:                                               ; preds = %18
  %23 = getelementptr inbounds i8, ptr %1, i64 %21
  invoke void @_ZN3nix5Store11unsupportedERKNSt7__cxx1112basic_stringIcSt11char_traitsIcESaIcEEE(ptr noundef nonnull align 8 dereferenceable(264) %23, ptr noundef nonnull align 8 dereferenceable(32) %12) #30
          to label %24 unwind label %27

24:                                               ; preds = %22
  unreachable

25:                                               ; preds = %18
  %26 = landingpad { ptr, i32 }
          cleanup
  br label %29

27:                                               ; preds = %22
  %28 = landingpad { ptr, i32 }
          cleanup
  call void @_ZNSt7__cxx1112basic_stringIcSt11char_traitsIcESaIcEED2Ev(ptr noundef nonnull align 8 dereferenceable(32) %12) #29
  br label %29

29:                                               ; preds = %27, %25
  %.pn = phi { ptr, i32 } [ %28, %27 ], [ %26, %25 ]
  call void @_ZNSaIcED1Ev(ptr noundef nonnull align 1 dereferenceable(1) %13) #29
  br label %71

30:                                               ; preds = %10
  %.sroa.0.0.copyload = load i16, ptr %11, align 2
  call void @_ZN3nix11RemoteStore12addCAToStoreERNS_6SourceESt17basic_string_viewIcSt11char_traitsIcEENS_20ContentAddressMethodENS_13HashAlgorithmERKSt3setINS_9StorePathESt4lessISA_ESaISA_EENS_10RepairFlagE(ptr dead_on_unwind nonnull writable sret(%"class.nix::ref.227") align 8 %14, ptr noundef nonnull align 8 dereferenceable(25) %1, ptr noundef nonnull align 8 dereferenceable(8) %2, i64 %3, ptr %4, i16 %.sroa.0.0.copyload, i8 noundef signext %7, ptr noundef nonnull align 8 dereferenceable(48) %8, i1 noundef zeroext %9)
  %31 = load ptr, ptr %14, align 8
  %32 = getelementptr inbounds i8, ptr %31, i64 352
  invoke void @_ZNSt7__cxx1112basic_stringIcSt11char_traitsIcESaIcEEC2ERKS4_(ptr noundef nonnull align 8 dereferenceable(32) %0, ptr noundef nonnull align 8 dereferenceable(32) %32)
          to label %_ZN3nix9StorePathC2ERKS0_.exit unwind label %69

_ZN3nix9StorePathC2ERKS0_.exit:                   ; preds = %30
  %33 = getelementptr inbounds i8, ptr %14, i64 8
  %34 = load ptr, ptr %33, align 8
  %.not.i.i.i.i = icmp eq ptr %34, null
  br i1 %.not.i.i.i.i, label %_ZN3nix3refIKNS_13ValidPathInfoEED2Ev.exit, label %35

35:                                               ; preds = %_ZN3nix9StorePathC2ERKS0_.exit
  %36 = getelementptr inbounds i8, ptr %34, i64 8
  %37 = load atomic i64, ptr %36 acquire, align 8
  %38 = icmp eq i64 %37, 4294967297
  %39 = trunc i64 %37 to i32
  br i1 %38, label %40, label %45

40:                                               ; preds = %35
  store i32 0, ptr %36, align 8
  %41 = getelementptr inbounds i8, ptr %34, i64 12
  store i32 0, ptr %41, align 4
  %42 = load ptr, ptr %34, align 8
  %43 = getelementptr inbounds i8, ptr %42, i64 16
  %44 = load ptr, ptr %43, align 8
  call void %44(ptr noundef nonnull align 8 dereferenceable(16) %34) #29
  br label %_ZNSt16_Sp_counted_baseILN9__gnu_cxx12_Lock_policyE2EE24_M_release_last_use_coldEv.exit.sink.split.i.i.i.i.i

45:                                               ; preds = %35
  %46 = load i8, ptr @__libc_single_threaded, align 1
  %.not.i.i.i.i.i = icmp eq i8 %46, 0
  br i1 %.not.i.i.i.i.i, label %49, label %47

47:                                               ; preds = %45
  %48 = add nsw i32 %39, -1
  store i32 %48, ptr %36, align 4
  br label %51

49:                                               ; preds = %45
  %50 = atomicrmw volatile add ptr %36, i32 -1 acq_rel, align 4
  br label %51

51:                                               ; preds = %49, %47
  %.0.i.i.i.i.i = phi i32 [ %39, %47 ], [ %50, %49 ]
  %52 = icmp eq i32 %.0.i.i.i.i.i, 1
  br i1 %52, label %53, label %_ZN3nix3refIKNS_13ValidPathInfoEED2Ev.exit

53:                                               ; preds = %51
  %54 = load ptr, ptr %34, align 8
  %55 = getelementptr inbounds i8, ptr %54, i64 16
  %56 = load ptr, ptr %55, align 8
  call void %56(ptr noundef nonnull align 8 dereferenceable(16) %34) #29
  %57 = getelementptr inbounds i8, ptr %34, i64 12
  %58 = load i8, ptr @__libc_single_threaded, align 1
  %.not.i.i.i.i.i.i.i = icmp eq i8 %58, 0
  br i1 %.not.i.i.i.i.i.i.i, label %62, label %59

59:                                               ; preds = %53
  %60 = load i32, ptr %57, align 4
  %61 = add nsw i32 %60, -1
  store i32 %61, ptr %57, align 4
  br label %64

62:                                               ; preds = %53
  %63 = atomicrmw volatile add ptr %57, i32 -1 acq_rel, align 4
  br label %64

64:                                               ; preds = %62, %59
  %.0.i.i.i.i.i.i.i = phi i32 [ %60, %59 ], [ %63, %62 ]
  %65 = icmp eq i32 %.0.i.i.i.i.i.i.i, 1
  br i1 %65, label %_ZNSt16_Sp_counted_baseILN9__gnu_cxx12_Lock_policyE2EE24_M_release_last_use_coldEv.exit.sink.split.i.i.i.i.i, label %_ZN3nix3refIKNS_13ValidPathInfoEED2Ev.exit

_ZNSt16_Sp_counted_baseILN9__gnu_cxx12_Lock_policyE2EE24_M_release_last_use_coldEv.exit.sink.split.i.i.i.i.i: ; preds = %64, %40
  %66 = load ptr, ptr %34, align 8
  %67 = getelementptr inbounds i8, ptr %66, i64 24
  %68 = load ptr, ptr %67, align 8
  call void %68(ptr noundef nonnull align 8 dereferenceable(16) %34) #29
  br label %_ZN3nix3refIKNS_13ValidPathInfoEED2Ev.exit

_ZN3nix3refIKNS_13ValidPathInfoEED2Ev.exit:       ; preds = %_ZN3nix9StorePathC2ERKS0_.exit, %51, %64, %_ZNSt16_Sp_counted_baseILN9__gnu_cxx12_Lock_policyE2EE24_M_release_last_use_coldEv.exit.sink.split.i.i.i.i.i
  ret void

69:                                               ; preds = %30
  %70 = landingpad { ptr, i32 }
          cleanup
  call void @_ZN3nix3refIKNS_13ValidPathInfoEED2Ev(ptr noundef nonnull align 8 dereferenceable(16) %14) #29
  br label %71

71:                                               ; preds = %69, %29
  %.pn.pn = phi { ptr, i32 } [ %.pn, %29 ], [ %70, %69 ]
  resume { ptr, i32 } %.pn.pn
}